target datalayout = "e-m:e-p270:32:32-p271:32:32-p272:64:64-i64:64-i128:128-f80:128-n8:16:32:64-S128"
target triple = "x86_64-pc-linux-gnu"

@.str.42 = private unnamed_addr constant [6 x i8] c"file:\00", align 1
@.str.43 = private unnamed_addr constant [6 x i8] c"jrt:/\00", align 1

; Function Attrs: mustprogress nounwind uwtable
define hidden noundef ptr @_ZN11ClassLoader17skip_uri_protocolEPc(ptr noundef %0) #1 align 2 {
  %2 = alloca ptr, align 8
  %3 = alloca i32, align 4
  store ptr %0, ptr %2, align 8
  %4 = load ptr, ptr %2, align 8
  %5 = call i32 @strncmp(ptr noundef %4, ptr noundef @.str.42, i64 noundef 5) #12
  %6 = icmp eq i32 %5, 0
  br i1 %6, label %7, label %26

7:                                                ; preds = %1
  store i32 5, ptr %3, align 4
  br label %8

8:                                                ; preds = %16, %7
  %9 = load ptr, ptr %2, align 8
  %10 = load i32, ptr %3, align 4
  %11 = sext i32 %10 to i64
  %12 = getelementptr inbounds i8, ptr %9, i64 %11
  %13 = load i8, ptr %12, align 1
  %14 = sext i8 %13 to i32
  %15 = icmp eq i32 %14, 47
  br i1 %15, label %16, label %19

16:                                               ; preds = %8
  %17 = load i32, ptr %3, align 4
  %18 = add nsw i32 %17, 1
  store i32 %18, ptr %3, align 4
  br label %8, !llvm.loop !25

19:                                               ; preds = %8
  %20 = load i32, ptr %3, align 4
  %21 = load ptr, ptr %2, align 8
  %22 = sext i32 %20 to i64
  %23 = getelementptr inbounds i8, ptr %21, i64 %22
  store ptr %23, ptr %2, align 8
  %24 = load ptr, ptr %2, align 8
  %25 = getelementptr inbounds i8, ptr %24, i64 -1
  store ptr %25, ptr %2, align 8
  br label %34

26:                                               ; preds = %1
  %27 = load ptr, ptr %2, align 8
  %28 = call i32 @strncmp(ptr noundef %27, ptr noundef @.str.43, i64 noundef 5) #12
  %29 = icmp eq i32 %28, 0
  br i1 %29, label %30, label %33

30:                                               ; preds = %26
  %31 = load ptr, ptr %2, align 8
  %32 = getelementptr inbounds i8, ptr %31, i64 5
  store ptr %32, ptr %2, align 8
  br label %33

33:                                               ; preds = %30, %26
  br label %34

34:                                               ; preds = %33, %19
  %35 = load ptr, ptr %2, align 8
  ret ptr %35
}