; Function Attrs: mustprogress nofree nounwind willreturn memory(argmem: read) uwtable
define hidden noundef ptr @_ZN11ClassLoader17skip_uri_protocolEPc(ptr noundef readonly %0) local_unnamed_addr #3 align 2 {
  %2 = tail call i32 @strncmp(ptr noundef nonnull dereferenceable(1) %0, ptr noundef nonnull dereferenceable(6) @.str.42, i64 noundef 5) #21
  %3 = icmp eq i32 %2, 0
  br i1 %3, label %.preheader, label %10

.preheader:                                       ; preds = %1, %.preheader
  %indvars.iv = phi i64 [ %indvars.iv.next, %.preheader ], [ 5, %1 ]
  %4 = getelementptr inbounds i8, ptr %0, i64 %indvars.iv
  %5 = load i8, ptr %4, align 1
  %6 = icmp eq i8 %5, 47
  %indvars.iv.next = add nuw nsw i64 %indvars.iv, 1
  br i1 %6, label %.preheader, label %7, !llvm.loop !25

7:                                                ; preds = %.preheader
  %8 = getelementptr inbounds i8, ptr %0, i64 %indvars.iv
  %9 = getelementptr inbounds i8, ptr %8, i64 -1
  br label %13

10:                                               ; preds = %1
  %11 = tail call i32 @strncmp(ptr noundef nonnull dereferenceable(1) %0, ptr noundef nonnull dereferenceable(6) @.str.43, i64 noundef 5) #21
  %12 = icmp eq i32 %11, 0
  %spec.select.idx = select i1 %12, i64 5, i64 0
  %spec.select = getelementptr inbounds i8, ptr %0, i64 %spec.select.idx
  br label %13

13:                                               ; preds = %10, %7
  %.09 = phi ptr [ %9, %7 ], [ %spec.select, %10 ]
  ret ptr %.09
}